target datalayout = "e-m:e-p270:32:32-p271:32:32-p272:64:64-i64:64-i128:128-f80:128-n8:16:32:64-S128"
target triple = "x86_64-pc-linux-gnu"

%"class.ade::MemoryDescriptorView" = type { ptr, ptr, %"struct.ade::util::DynMdSpan", i32, %"class.std::shared_ptr" }
%"struct.ade::util::DynMdSpan" = type { %"struct.std::array", i64 }
%"struct.std::array" = type { [6 x %"struct.ade::util::Span"] }
%"struct.ade::util::Span" = type { i32, i32 }
%"class.std::shared_ptr" = type { %"class.std::__shared_ptr" }
%"class.std::__shared_ptr" = type { ptr, %"class.std::__shared_count" }
%"class.std::__shared_count" = type { ptr }
%"struct.ade::util::DynMdSize" = type { %"struct.std::array.0", i64 }
%"struct.std::array.0" = type { [6 x i32] }
%class.anon = type { i8 }

; Function Attrs: mustprogress nounwind uwtable
define linkonce_odr hidden noundef ptr @_ZNSt14__array_traitsIiLm6EE6_S_ptrERA6_Ki(ptr noundef nonnull align 4 dereferenceable(24) %0) #0 comdat align 2 {
  %2 = alloca ptr, align 8
  store ptr %0, ptr %2, align 8, !tbaa !127
  %3 = load ptr, ptr %2, align 8, !tbaa !127
  %4 = getelementptr inbounds [6 x i32], ptr %3, i64 0, i64 0
  ret ptr %4
}

; Function Attrs: mustprogress nounwind uwtable
define linkonce_odr hidden noundef ptr @_ZNSt14__array_traitsIN3ade4util4SpanELm6EE6_S_ptrERA6_KS2_(ptr noundef nonnull align 4 dereferenceable(48) %0) #0 comdat align 2 {
  %2 = alloca ptr, align 8
  store ptr %0, ptr %2, align 8, !tbaa !38
  %3 = load ptr, ptr %2, align 8, !tbaa !38
  %4 = getelementptr inbounds [6 x %"struct.ade::util::Span"], ptr %3, i64 0, i64 0
  ret ptr %4
}

; Function Attrs: mustprogress nounwind uwtable
define linkonce_odr hidden noundef i32 @_ZNK3ade4util4Span6lengthEv(ptr noundef nonnull align 4 dereferenceable(8) %0) #0 comdat align 2 {
  %2 = alloca ptr, align 8
  store ptr %0, ptr %2, align 8, !tbaa !38
  %3 = load ptr, ptr %2, align 8
  %4 = getelementptr inbounds nuw %"struct.ade::util::Span", ptr %3, i32 0, i32 1
  %5 = load i32, ptr %4, align 4, !tbaa !83
  %6 = getelementptr inbounds nuw %"struct.ade::util::Span", ptr %3, i32 0, i32 0
  %7 = load i32, ptr %6, align 4, !tbaa !81
  %8 = sub nsw i32 %5, %7
  ret i32 %8
}

; Function Attrs: mustprogress nounwind willreturn memory(none) uwtable
define linkonce_odr hidden noundef ptr @_ZNSt5arrayIiLm6EE4dataEv(ptr noundef nonnull align 4 dereferenceable(24) %0) #18 comdat align 2 {
  %2 = alloca ptr, align 8
  store ptr %0, ptr %2, align 8, !tbaa !226
  %3 = load ptr, ptr %2, align 8
  %4 = getelementptr inbounds nuw %"struct.std::array.0", ptr %3, i32 0, i32 0
  %5 = call noundef ptr @_ZNSt14__array_traitsIiLm6EE6_S_ptrERA6_Ki(ptr noundef nonnull align 4 dereferenceable(24) %4) #19
  ret ptr %5
}

; Function Attrs: mustprogress nounwind uwtable
define linkonce_odr hidden noundef ptr @_ZNKSt5arrayIN3ade4util4SpanELm6EE4dataEv(ptr noundef nonnull align 4 dereferenceable(48) %0) #0 comdat align 2 {
  %2 = alloca ptr, align 8
  store ptr %0, ptr %2, align 8, !tbaa !113
  %3 = load ptr, ptr %2, align 8
  %4 = getelementptr inbounds nuw %"struct.std::array", ptr %3, i32 0, i32 0
  %5 = call noundef ptr @_ZNSt14__array_traitsIN3ade4util4SpanELm6EE6_S_ptrERA6_KS2_(ptr noundef nonnull align 4 dereferenceable(48) %4) #19
  ret ptr %5
}

; Function Attrs: inlinehint mustprogress uwtable
define linkonce_odr hidden noundef i32 @_ZZNK3ade4util9DynMdSpanILm6EE4sizeEvENKUlRKNS0_4SpanEE_clES5_(ptr noundef nonnull align 1 dereferenceable(1) %0, ptr noundef nonnull align 4 dereferenceable(8) %1) #3 comdat align 2 {
  %3 = alloca ptr, align 8
  %4 = alloca ptr, align 8
  store ptr %0, ptr %3, align 8, !tbaa !94
  store ptr %1, ptr %4, align 8, !tbaa !38
  %5 = load ptr, ptr %4, align 8, !tbaa !38
  %6 = call noundef i32 @_ZNK3ade4util4Span6lengthEv(ptr noundef nonnull align 4 dereferenceable(8) %5)
  ret i32 %6
}

; Function Attrs: mustprogress nounwind willreturn memory(none) uwtable
define linkonce_odr hidden noundef ptr @_ZNSt5arrayIiLm6EE5beginEv(ptr noundef nonnull align 4 dereferenceable(24) %0) #18 comdat align 2 {
  %2 = alloca ptr, align 8
  store ptr %0, ptr %2, align 8, !tbaa !226
  %3 = load ptr, ptr %2, align 8
  %4 = call noundef ptr @_ZNSt5arrayIiLm6EE4dataEv(ptr noundef nonnull align 4 dereferenceable(24) %3) #24
  ret ptr %4
}

; Function Attrs: mustprogress nounwind uwtable
define linkonce_odr hidden noundef ptr @_ZNKSt5arrayIN3ade4util4SpanELm6EE5beginEv(ptr noundef nonnull align 4 dereferenceable(48) %0) #0 comdat align 2 {
  %2 = alloca ptr, align 8
  store ptr %0, ptr %2, align 8, !tbaa !113
  %3 = load ptr, ptr %2, align 8
  %4 = call noundef ptr @_ZNKSt5arrayIN3ade4util4SpanELm6EE4dataEv(ptr noundef nonnull align 4 dereferenceable(48) %3) #19
  ret ptr %4
}

; Function Attrs: mustprogress uwtable
define linkonce_odr hidden noundef ptr @_ZSt9transformIPKN3ade4util4SpanEPiZNKS1_9DynMdSpanILm6EE4sizeEvEUlRS3_E_ET0_T_SB_SA_T1_(ptr noundef %0, ptr noundef %1, ptr noundef %2) #1 comdat {
  %4 = alloca %class.anon, align 1
  %5 = alloca ptr, align 8
  %6 = alloca ptr, align 8
  %7 = alloca ptr, align 8
  store ptr %0, ptr %5, align 8, !tbaa !38
  store ptr %1, ptr %6, align 8, !tbaa !38
  store ptr %2, ptr %7, align 8, !tbaa !127
  br label %8

8:                                                ; preds = %16, %3
  %9 = load ptr, ptr %5, align 8, !tbaa !38
  %10 = load ptr, ptr %6, align 8, !tbaa !38
  %11 = icmp ne ptr %9, %10
  br i1 %11, label %12, label %21

12:                                               ; preds = %8
  %13 = load ptr, ptr %5, align 8, !tbaa !38
  %14 = call noundef i32 @_ZZNK3ade4util9DynMdSpanILm6EE4sizeEvENKUlRKNS0_4SpanEE_clES5_(ptr noundef nonnull align 1 dereferenceable(1) %4, ptr noundef nonnull align 4 dereferenceable(8) %13)
  %15 = load ptr, ptr %7, align 8, !tbaa !127
  store i32 %14, ptr %15, align 4, !tbaa !78
  br label %16

16:                                               ; preds = %12
  %17 = load ptr, ptr %5, align 8, !tbaa !38
  %18 = getelementptr inbounds nuw %"struct.ade::util::Span", ptr %17, i32 1
  store ptr %18, ptr %5, align 8, !tbaa !38
  %19 = load ptr, ptr %7, align 8, !tbaa !127
  %20 = getelementptr inbounds nuw i32, ptr %19, i32 1
  store ptr %20, ptr %7, align 8, !tbaa !127
  br label %8, !llvm.loop !225

21:                                               ; preds = %8
  %22 = load ptr, ptr %7, align 8, !tbaa !127
  ret ptr %22
}

; Function Attrs: mustprogress nounwind uwtable
define linkonce_odr hidden noundef ptr @_ZN3ade4util9DynMdSizeILm6EE5beginEv(ptr noundef nonnull align 8 dereferenceable(32) %0) #0 comdat align 2 {
  %2 = alloca ptr, align 8
  store ptr %0, ptr %2, align 8, !tbaa !76
  %3 = load ptr, ptr %2, align 8
  %4 = getelementptr inbounds nuw %"struct.ade::util::DynMdSize", ptr %3, i32 0, i32 0
  %5 = call noundef ptr @_ZNSt5arrayIiLm6EE5beginEv(ptr noundef nonnull align 4 dereferenceable(24) %4) #24
  ret ptr %5
}

; Function Attrs: mustprogress uwtable
define linkonce_odr hidden noundef ptr @_ZNK3ade4util9DynMdSpanILm6EE3endEv(ptr noundef nonnull align 8 dereferenceable(56) %0) #1 comdat align 2 {
  %2 = alloca ptr, align 8
  store ptr %0, ptr %2, align 8, !tbaa !22
  %3 = load ptr, ptr %2, align 8
  %4 = getelementptr inbounds nuw %"struct.ade::util::DynMdSpan", ptr %3, i32 0, i32 0
  %5 = call noundef ptr @_ZNKSt5arrayIN3ade4util4SpanELm6EE5beginEv(ptr noundef nonnull align 4 dereferenceable(48) %4) #19
  %6 = call noundef i64 @_ZNK3ade4util9DynMdSpanILm6EE10dims_countEv(ptr noundef nonnull align 8 dereferenceable(56) %3)
  %7 = getelementptr inbounds nuw %"struct.ade::util::Span", ptr %5, i64 %6
  ret ptr %7
}

; Function Attrs: mustprogress nounwind uwtable
define linkonce_odr hidden noundef ptr @_ZNK3ade4util9DynMdSpanILm6EE5beginEv(ptr noundef nonnull align 8 dereferenceable(56) %0) #0 comdat align 2 {
  %2 = alloca ptr, align 8
  store ptr %0, ptr %2, align 8, !tbaa !22
  %3 = load ptr, ptr %2, align 8
  %4 = getelementptr inbounds nuw %"struct.ade::util::DynMdSpan", ptr %3, i32 0, i32 0
  %5 = call noundef ptr @_ZNKSt5arrayIN3ade4util4SpanELm6EE5beginEv(ptr noundef nonnull align 4 dereferenceable(48) %4) #19
  ret ptr %5
}

; Function Attrs: mustprogress nounwind uwtable
define linkonce_odr hidden void @_ZN3ade4util9DynMdSizeILm6EE5redimEm(ptr noundef nonnull align 8 dereferenceable(32) %0, i64 noundef %1) #0 comdat align 2 {
  %3 = alloca ptr, align 8
  %4 = alloca i64, align 8
  %5 = alloca i8, align 1
  store ptr %0, ptr %3, align 8, !tbaa !76
  store i64 %1, ptr %4, align 8, !tbaa !31
  %6 = load ptr, ptr %3, align 8
  br label %7

7:                                                ; preds = %2
  call void @llvm.lifetime.start.p0(i64 1, ptr %5) #19
  store i8 0, ptr %5, align 1, !tbaa !34
  call void @llvm.lifetime.end.p0(i64 1, ptr %5) #19
  br label %8

8:                                                ; preds = %7
  %9 = load i64, ptr %4, align 8, !tbaa !31
  %10 = getelementptr inbounds nuw %"struct.ade::util::DynMdSize", ptr %6, i32 0, i32 1
  store i64 %9, ptr %10, align 8, !tbaa !222
  ret void
}

; Function Attrs: mustprogress nounwind uwtable
define linkonce_odr hidden noundef i64 @_ZNK3ade4util9DynMdSpanILm6EE10dims_countEv(ptr noundef nonnull align 8 dereferenceable(56) %0) #0 comdat align 2 {
  %2 = alloca ptr, align 8
  store ptr %0, ptr %2, align 8, !tbaa !22
  %3 = load ptr, ptr %2, align 8
  %4 = getelementptr inbounds nuw %"struct.ade::util::DynMdSpan", ptr %3, i32 0, i32 1
  %5 = load i64, ptr %4, align 8, !tbaa !24
  ret i64 %5
}

; Function Attrs: mustprogress nounwind uwtable
define linkonce_odr hidden void @_ZN3ade4util9DynMdSizeILm6EEC2Ev(ptr noundef nonnull align 8 dereferenceable(32) %0) unnamed_addr #0 comdat align 2 {
  %2 = alloca ptr, align 8
  store ptr %0, ptr %2, align 8, !tbaa !76
  %3 = load ptr, ptr %2, align 8
  %4 = getelementptr inbounds nuw %"struct.ade::util::DynMdSize", ptr %3, i32 0, i32 1
  store i64 0, ptr %4, align 8, !tbaa !222
  ret void
}

; Function Attrs: mustprogress uwtable
define linkonce_odr hidden void @_ZNK3ade4util9DynMdSpanILm6EE4sizeEv(ptr dead_on_unwind noalias writable sret(%"struct.ade::util::DynMdSize") align 8 %0, ptr noundef nonnull align 8 dereferenceable(56) %1) #1 comdat align 2 {
  %3 = alloca ptr, align 8
  store ptr %1, ptr %3, align 8, !tbaa !22
  %4 = load ptr, ptr %3, align 8
  call void @_ZN3ade4util9DynMdSizeILm6EEC2Ev(ptr noundef nonnull align 8 dereferenceable(32) %0) #19
  %5 = call noundef i64 @_ZNK3ade4util9DynMdSpanILm6EE10dims_countEv(ptr noundef nonnull align 8 dereferenceable(56) %4)
  call void @_ZN3ade4util9DynMdSizeILm6EE5redimEm(ptr noundef nonnull align 8 dereferenceable(32) %0, i64 noundef %5)
  %6 = call noundef ptr @_ZNK3ade4util9DynMdSpanILm6EE5beginEv(ptr noundef nonnull align 8 dereferenceable(56) %4)
  %7 = call noundef ptr @_ZNK3ade4util9DynMdSpanILm6EE3endEv(ptr noundef nonnull align 8 dereferenceable(56) %4)
  %8 = call noundef ptr @_ZN3ade4util9DynMdSizeILm6EE5beginEv(ptr noundef nonnull align 8 dereferenceable(32) %0)
  %9 = call noundef ptr @_ZSt9transformIPKN3ade4util4SpanEPiZNKS1_9DynMdSpanILm6EE4sizeEvEUlRS3_E_ET0_T_SB_SA_T1_(ptr noundef %6, ptr noundef %7, ptr noundef %8)
  ret void
}

; Function Attrs: mustprogress uwtable
define hidden void @_ZNK3ade20MemoryDescriptorView4sizeEv(ptr dead_on_unwind noalias writable sret(%"struct.ade::util::DynMdSize") align 8 %0, ptr noundef nonnull align 8 dereferenceable(96) %1) #1 align 2 {
  %3 = alloca ptr, align 8
  %4 = alloca i8, align 1
  store ptr %1, ptr %3, align 8, !tbaa !3
  %5 = load ptr, ptr %3, align 8
  br label %6

6:                                                ; preds = %2
  call void @llvm.lifetime.start.p0(i64 1, ptr %4) #19
  store i8 0, ptr %4, align 1, !tbaa !34
  call void @llvm.lifetime.end.p0(i64 1, ptr %4) #19
  br label %7

7:                                                ; preds = %6
  %8 = getelementptr inbounds nuw %"class.ade::MemoryDescriptorView", ptr %5, i32 0, i32 2
  call void @_ZNK3ade4util9DynMdSpanILm6EE4sizeEv(ptr dead_on_unwind writable sret(%"struct.ade::util::DynMdSize") align 8 %0, ptr noundef nonnull align 8 dereferenceable(56) %8)
  ret void
}