; Function Attrs: mustprogress nofree norecurse nosync nounwind memory(argmem: readwrite, inaccessiblemem: readwrite) uwtable
define hidden void @_ZNK3ade20MemoryDescriptorView4sizeEv(ptr dead_on_unwind noalias writable writeonly sret(%"struct.ade::util::DynMdSize") align 8 captures(none) initializes((24, 32)) %0, ptr noundef nonnull readonly align 8 dereferenceable(96) %1) local_unnamed_addr #11 align 2 {
  %3 = getelementptr inbounds nuw i8, ptr %1, i64 16
  tail call void @llvm.experimental.noalias.scope.decl(metadata !80)
  %4 = getelementptr inbounds nuw i8, ptr %0, i64 24
  %5 = getelementptr inbounds nuw i8, ptr %1, i64 64
  %6 = load i64, ptr %5, align 8, !tbaa !61, !noalias !80
  store i64 %6, ptr %4, align 8, !tbaa !83, !alias.scope !80
  %7 = getelementptr inbounds nuw %"struct.ade::util::Span", ptr %3, i64 %6
  %.not8.i.i = icmp eq i64 %6, 0
  br i1 %.not8.i.i, label %_ZNK3ade4util9DynMdSpanILm6EE4sizeEv.exit, label %.lr.ph.i.i

.lr.ph.i.i:                                       ; preds = %2, %.lr.ph.i.i
  %.010.i.i = phi ptr [ %13, %.lr.ph.i.i ], [ %0, %2 ]
  %.079.i.i = phi ptr [ %12, %.lr.ph.i.i ], [ %3, %2 ]
  %8 = getelementptr inbounds nuw i8, ptr %.079.i.i, i64 4
  %9 = load i32, ptr %8, align 4, !tbaa !68, !noalias !80
  %10 = load i32, ptr %.079.i.i, align 4, !tbaa !62, !noalias !80
  %11 = sub nsw i32 %9, %10
  store i32 %11, ptr %.010.i.i, align 4, !tbaa !36, !alias.scope !80
  %12 = getelementptr inbounds nuw i8, ptr %.079.i.i, i64 8
  %13 = getelementptr inbounds nuw i8, ptr %.010.i.i, i64 4
  %.not.i.i = icmp eq ptr %12, %7
  br i1 %.not.i.i, label %_ZNK3ade4util9DynMdSpanILm6EE4sizeEv.exit, label %.lr.ph.i.i, !llvm.loop !69

_ZNK3ade4util9DynMdSpanILm6EE4sizeEv.exit:        ; preds = %.lr.ph.i.i, %2
  ret void
}